target datalayout = "e-m:e-p270:32:32-p271:32:32-p272:64:64-i64:64-i128:128-f80:128-n8:16:32:64-S128"
target triple = "x86_64-pc-linux-gnu"

%struct.H5D_t = type { %struct.H5O_loc_t, %struct.H5G_name_t, ptr }
%struct.H5O_loc_t = type { ptr, i64, i8 }
%struct.H5G_name_t = type { ptr, ptr, i32 }
%struct.H5D_shared_t = type { i64, i8, i64, ptr, ptr, i64, i64, %struct.H5D_dcpl_cache_t, %struct.H5O_layout_t, i8, i32, [32 x i64], [32 x i64], [32 x i64], %struct.anon.7, %struct.H5D_append_flush_t, ptr, ptr }
%struct.H5D_dcpl_cache_t = type { %struct.H5O_fill_t, %struct.H5O_pline_t, %struct.H5O_efl_t }
%struct.H5O_fill_t = type { %struct.H5O_shared_t, i32, ptr, i64, ptr, i32, i32, i8 }
%struct.H5O_shared_t = type { i32, ptr, i32, %union.anon.0 }
%union.anon.0 = type { %struct.H5O_mesg_loc_t }
%struct.H5O_mesg_loc_t = type { i32, i64 }
%struct.H5O_pline_t = type { %struct.H5O_shared_t, i32, i64, i64, ptr }
%struct.H5O_efl_t = type { i64, i64, i64, ptr }
%struct.H5O_layout_t = type { i32, i32, ptr, %union.anon.1, %struct.H5O_storage_t }
%union.anon.1 = type { %struct.H5O_layout_chunk_t }
%struct.H5O_layout_chunk_t = type { i32, i8, i32, [33 x i32], i32, i32, i64, i64, [33 x i64], [33 x i64], [33 x i64], [33 x i64], %union.anon.2 }
%union.anon.2 = type { %struct.H5O_layout_chunk_earray_t }
%struct.H5O_layout_chunk_earray_t = type { %struct.anon.3, i32, [33 x i32], [33 x i64], [33 x i64] }
%struct.anon.3 = type { i8, i8, i8, i8, i8 }
%struct.H5O_storage_t = type { i32, %union.anon.5 }
%union.anon.5 = type { %struct.H5O_storage_virtual_t }
%struct.H5O_storage_virtual_t = type { %struct.H5HG_t, i64, ptr, i64, [32 x i64], i32, i64, i64, i64, i8 }
%struct.H5HG_t = type { i64, i64 }
%struct.anon.7 = type { %struct.H5D_rdcdc_t, %struct.H5D_rdcc_t }
%struct.H5D_rdcdc_t = type { ptr, i64, i64, i64, i8 }
%struct.H5D_rdcc_t = type { %struct.anon.8, i64, i64, double, ptr, ptr, ptr, i64, i32, %struct.H5D_chunk_cached_t, ptr, ptr, ptr, ptr, [32 x i64], [32 x i64], [32 x i32] }
%struct.anon.8 = type { i32, i32, i32, i32 }
%struct.H5D_chunk_cached_t = type { i8, [33 x i64], i64, i32, i64, i32 }
%struct.H5D_append_flush_t = type { i32, [32 x i64], ptr, ptr }
%struct.H5O_storage_contig_t = type { i64, i64 }

@H5D_init_g = external global i8, align 1
@H5_libterm_g = external global i8, align 1
@.str.1 = private unnamed_addr constant [103 x i8] c"generated/home/dtcxzyw/WorkSpace/Projects/compilers/llvm-opt-benchmark/bench/hdf5/hdf5/src/H5Dcontig.c\00", align 1
@H5E_DATASET_g = external global i64, align 8
@H5E_CANTGET_g = external global i64, align 8
@.str.10 = private unnamed_addr constant [36 x i8] c"unable to retrieve size of datatype\00", align 1
@.str.36 = private unnamed_addr constant [51 x i8] c"unable to retrieve number of elements in dataspace\00", align 1
@__func__.H5D__contig_init = private unnamed_addr constant [17 x i8] c"H5D__contig_init\00", align 1
@H5E_BADVALUE_g = external global i64, align 8
@.str.37 = private unnamed_addr constant [21 x i8] c"invalid dataset info\00", align 1

; Function Attrs: nounwind uwtable
define internal i32 @H5D__contig_init(ptr noundef %0, ptr noundef %1, i64 noundef %2) #0 {
  %4 = alloca i32, align 4
  %5 = alloca ptr, align 8
  %6 = alloca ptr, align 8
  %7 = alloca i64, align 8
  %8 = alloca i64, align 8
  %9 = alloca i32, align 4
  %10 = alloca i8, align 1
  %11 = alloca i64, align 8
  %12 = alloca i64, align 8
  %13 = alloca i64, align 8
  %14 = alloca i32, align 4
  store ptr %0, ptr %5, align 8, !tbaa !3
  store ptr %1, ptr %6, align 8, !tbaa !8
  store i64 %2, ptr %7, align 8, !tbaa !49
  call void @llvm.lifetime.start.p0(i64 8, ptr %8) #6
  call void @llvm.lifetime.start.p0(i64 4, ptr %9) #6
  store i32 0, ptr %9, align 4, !tbaa !10
  call void @llvm.lifetime.start.p0(i64 1, ptr %10) #6
  store i8 0, ptr %10, align 1, !tbaa !12
  %15 = load i8, ptr @H5D_init_g, align 1, !tbaa !12, !range !14, !noundef !15
  %16 = trunc i8 %15 to i1
  br i1 %16, label %21, label %17

17:                                               ; preds = %3
  %18 = load i8, ptr @H5_libterm_g, align 1, !tbaa !12, !range !14, !noundef !15
  %19 = trunc i8 %18 to i1
  %20 = xor i1 %19, true
  br label %21

21:                                               ; preds = %17, %3
  %22 = phi i1 [ true, %3 ], [ %20, %17 ]
  %23 = xor i1 %22, true
  %24 = xor i1 %23, true
  %25 = zext i1 %24 to i32
  %26 = sext i32 %25 to i64
  %27 = call i64 @llvm.expect.i64(i64 %26, i64 1)
  %28 = icmp ne i64 %27, 0
  br i1 %28, label %29, label %185

29:                                               ; preds = %21
  %30 = load ptr, ptr %5, align 8, !tbaa !3
  %31 = load ptr, ptr %6, align 8, !tbaa !8
  %32 = getelementptr inbounds nuw %struct.H5D_t, ptr %31, i32 0, i32 2
  %33 = load ptr, ptr %32, align 8, !tbaa !16
  %34 = getelementptr inbounds nuw %struct.H5D_shared_t, ptr %33, i32 0, i32 8
  %35 = load ptr, ptr %6, align 8, !tbaa !8
  %36 = getelementptr inbounds nuw %struct.H5D_t, ptr %35, i32 0, i32 2
  %37 = load ptr, ptr %36, align 8, !tbaa !16
  %38 = getelementptr inbounds nuw %struct.H5D_shared_t, ptr %37, i32 0, i32 4
  %39 = load ptr, ptr %38, align 8, !tbaa !52
  %40 = call ptr @H5S_get_simple_extent(ptr noundef %39)
  %41 = load ptr, ptr %6, align 8, !tbaa !8
  %42 = getelementptr inbounds nuw %struct.H5D_t, ptr %41, i32 0, i32 2
  %43 = load ptr, ptr %42, align 8, !tbaa !16
  %44 = getelementptr inbounds nuw %struct.H5D_shared_t, ptr %43, i32 0, i32 3
  %45 = load ptr, ptr %44, align 8, !tbaa !53
  %46 = call i32 @H5D__contig_check(ptr noundef %30, ptr noundef %34, ptr noundef %40, ptr noundef %45)
  %47 = icmp slt i32 %46, 0
  br i1 %47, label %48, label %67

48:                                               ; preds = %29
  br label %49

49:                                               ; preds = %48
  br label %50

50:                                               ; preds = %49
  br label %51

51:                                               ; preds = %50
  %52 = load i64, ptr @H5E_DATASET_g, align 8, !tbaa !49
  %53 = load i64, ptr @H5E_BADVALUE_g, align 8, !tbaa !49
  %54 = call i32 (ptr, ptr, i32, i64, i64, ptr, ...) @H5E_printf_stack(ptr noundef @.str.1, ptr noundef @__func__.H5D__contig_init, i32 noundef 514, i64 noundef %52, i64 noundef %53, ptr noundef @.str.37)
  br label %55

55:                                               ; preds = %51
  br label %56

56:                                               ; preds = %55
  store i8 1, ptr %10, align 1, !tbaa !12
  %57 = load i8, ptr %10, align 1, !tbaa !12, !range !14, !noundef !15
  %58 = trunc i8 %57 to i1
  %59 = zext i1 %58 to i8
  store i8 %59, ptr %10, align 1, !tbaa !12
  br label %60

60:                                               ; preds = %56
  br label %61

61:                                               ; preds = %60
  br label %62

62:                                               ; preds = %61
  store i32 -1, ptr %9, align 4, !tbaa !10
  br label %184

63:                                               ; No predecessors!
  br label %64

64:                                               ; preds = %63
  br label %65

65:                                               ; preds = %64
  br label %66

66:                                               ; preds = %65
  br label %67

67:                                               ; preds = %66, %29
  %68 = load ptr, ptr %6, align 8, !tbaa !8
  %69 = getelementptr inbounds nuw %struct.H5D_t, ptr %68, i32 0, i32 2
  %70 = load ptr, ptr %69, align 8, !tbaa !16
  %71 = getelementptr inbounds nuw %struct.H5D_shared_t, ptr %70, i32 0, i32 8
  %72 = getelementptr inbounds nuw %struct.H5O_layout_t, ptr %71, i32 0, i32 1
  %73 = load i32, ptr %72, align 4, !tbaa !56
  %74 = icmp ult i32 %73, 3
  br i1 %74, label %75, label %144

75:                                               ; preds = %67
  call void @llvm.lifetime.start.p0(i64 8, ptr %11) #6
  call void @llvm.lifetime.start.p0(i64 8, ptr %12) #6
  call void @llvm.lifetime.start.p0(i64 8, ptr %13) #6
  %76 = load ptr, ptr %6, align 8, !tbaa !8
  %77 = getelementptr inbounds nuw %struct.H5D_t, ptr %76, i32 0, i32 2
  %78 = load ptr, ptr %77, align 8, !tbaa !16
  %79 = getelementptr inbounds nuw %struct.H5D_shared_t, ptr %78, i32 0, i32 4
  %80 = load ptr, ptr %79, align 8, !tbaa !52
  %81 = call i64 @H5S_get_simple_extent_npoints(ptr noundef %80)
  store i64 %81, ptr %11, align 8, !tbaa !49
  %82 = icmp slt i64 %81, 0
  br i1 %82, label %83, label %102

83:                                               ; preds = %75
  br label %84

84:                                               ; preds = %83
  br label %85

85:                                               ; preds = %84
  br label %86

86:                                               ; preds = %85
  %87 = load i64, ptr @H5E_DATASET_g, align 8, !tbaa !49
  %88 = load i64, ptr @H5E_CANTGET_g, align 8, !tbaa !49
  %89 = call i32 (ptr, ptr, i32, i64, i64, ptr, ...) @H5E_printf_stack(ptr noundef @.str.1, ptr noundef @__func__.H5D__contig_init, i32 noundef 527, i64 noundef %87, i64 noundef %88, ptr noundef @.str.36)
  br label %90

90:                                               ; preds = %86
  br label %91

91:                                               ; preds = %90
  store i8 1, ptr %10, align 1, !tbaa !12
  %92 = load i8, ptr %10, align 1, !tbaa !12, !range !14, !noundef !15
  %93 = trunc i8 %92 to i1
  %94 = zext i1 %93 to i8
  store i8 %94, ptr %10, align 1, !tbaa !12
  br label %95

95:                                               ; preds = %91
  br label %96

96:                                               ; preds = %95
  br label %97

97:                                               ; preds = %96
  store i32 -1, ptr %9, align 4, !tbaa !10
  store i32 10, ptr %14, align 4
  br label %141

98:                                               ; No predecessors!
  br label %99

99:                                               ; preds = %98
  br label %100

100:                                              ; preds = %99
  br label %101

101:                                              ; preds = %100
  br label %102

102:                                              ; preds = %101, %75
  %103 = load i64, ptr %11, align 8, !tbaa !49
  store i64 %103, ptr %12, align 8, !tbaa !49
  %104 = load ptr, ptr %6, align 8, !tbaa !8
  %105 = getelementptr inbounds nuw %struct.H5D_t, ptr %104, i32 0, i32 2
  %106 = load ptr, ptr %105, align 8, !tbaa !16
  %107 = getelementptr inbounds nuw %struct.H5D_shared_t, ptr %106, i32 0, i32 3
  %108 = load ptr, ptr %107, align 8, !tbaa !53
  %109 = call i64 @H5T_get_size(ptr noundef %108)
  store i64 %109, ptr %13, align 8, !tbaa !49
  %110 = icmp eq i64 0, %109
  br i1 %110, label %111, label %130

111:                                              ; preds = %102
  br label %112

112:                                              ; preds = %111
  br label %113

113:                                              ; preds = %112
  br label %114

114:                                              ; preds = %113
  %115 = load i64, ptr @H5E_DATASET_g, align 8, !tbaa !49
  %116 = load i64, ptr @H5E_CANTGET_g, align 8, !tbaa !49
  %117 = call i32 (ptr, ptr, i32, i64, i64, ptr, ...) @H5E_printf_stack(ptr noundef @.str.1, ptr noundef @__func__.H5D__contig_init, i32 noundef 532, i64 noundef %115, i64 noundef %116, ptr noundef @.str.10)
  br label %118

118:                                              ; preds = %114
  br label %119

119:                                              ; preds = %118
  store i8 1, ptr %10, align 1, !tbaa !12
  %120 = load i8, ptr %10, align 1, !tbaa !12, !range !14, !noundef !15
  %121 = trunc i8 %120 to i1
  %122 = zext i1 %121 to i8
  store i8 %122, ptr %10, align 1, !tbaa !12
  br label %123

123:                                              ; preds = %119
  br label %124

124:                                              ; preds = %123
  br label %125

125:                                              ; preds = %124
  store i32 -1, ptr %9, align 4, !tbaa !10
  store i32 10, ptr %14, align 4
  br label %141

126:                                              ; No predecessors!
  br label %127

127:                                              ; preds = %126
  br label %128

128:                                              ; preds = %127
  br label %129

129:                                              ; preds = %128
  br label %130

130:                                              ; preds = %129, %102
  %131 = load i64, ptr %12, align 8, !tbaa !49
  %132 = load i64, ptr %13, align 8, !tbaa !49
  %133 = mul i64 %131, %132
  %134 = load ptr, ptr %6, align 8, !tbaa !8
  %135 = getelementptr inbounds nuw %struct.H5D_t, ptr %134, i32 0, i32 2
  %136 = load ptr, ptr %135, align 8, !tbaa !16
  %137 = getelementptr inbounds nuw %struct.H5D_shared_t, ptr %136, i32 0, i32 8
  %138 = getelementptr inbounds nuw %struct.H5O_layout_t, ptr %137, i32 0, i32 4
  %139 = getelementptr inbounds nuw %struct.H5O_storage_t, ptr %138, i32 0, i32 1
  %140 = getelementptr inbounds nuw %struct.H5O_storage_contig_t, ptr %139, i32 0, i32 1
  store i64 %133, ptr %140, align 8, !tbaa !54
  store i32 0, ptr %14, align 4
  br label %141

141:                                              ; preds = %125, %97, %130
  call void @llvm.lifetime.end.p0(i64 8, ptr %13) #6
  call void @llvm.lifetime.end.p0(i64 8, ptr %12) #6
  call void @llvm.lifetime.end.p0(i64 8, ptr %11) #6
  %142 = load i32, ptr %14, align 4
  switch i32 %142, label %187 [
    i32 0, label %143
    i32 10, label %184
  ]

143:                                              ; preds = %141
  br label %144

144:                                              ; preds = %143, %67
  %145 = load ptr, ptr %6, align 8, !tbaa !8
  %146 = getelementptr inbounds nuw %struct.H5D_t, ptr %145, i32 0, i32 0
  %147 = getelementptr inbounds nuw %struct.H5O_loc_t, ptr %146, i32 0, i32 0
  %148 = load ptr, ptr %147, align 8, !tbaa !57
  %149 = call i64 @H5F_sieve_buf_size(ptr noundef %148)
  store i64 %149, ptr %8, align 8, !tbaa !49
  %150 = load ptr, ptr %6, align 8, !tbaa !8
  %151 = getelementptr inbounds nuw %struct.H5D_t, ptr %150, i32 0, i32 2
  %152 = load ptr, ptr %151, align 8, !tbaa !16
  %153 = getelementptr inbounds nuw %struct.H5D_shared_t, ptr %152, i32 0, i32 8
  %154 = getelementptr inbounds nuw %struct.H5O_layout_t, ptr %153, i32 0, i32 4
  %155 = getelementptr inbounds nuw %struct.H5O_storage_t, ptr %154, i32 0, i32 1
  %156 = getelementptr inbounds nuw %struct.H5O_storage_contig_t, ptr %155, i32 0, i32 1
  %157 = load i64, ptr %156, align 8, !tbaa !54
  %158 = load i64, ptr %8, align 8, !tbaa !49
  %159 = icmp ult i64 %157, %158
  br i1 %159, label %160, label %175

160:                                              ; preds = %144
  %161 = load ptr, ptr %6, align 8, !tbaa !8
  %162 = getelementptr inbounds nuw %struct.H5D_t, ptr %161, i32 0, i32 2
  %163 = load ptr, ptr %162, align 8, !tbaa !16
  %164 = getelementptr inbounds nuw %struct.H5D_shared_t, ptr %163, i32 0, i32 8
  %165 = getelementptr inbounds nuw %struct.H5O_layout_t, ptr %164, i32 0, i32 4
  %166 = getelementptr inbounds nuw %struct.H5O_storage_t, ptr %165, i32 0, i32 1
  %167 = getelementptr inbounds nuw %struct.H5O_storage_contig_t, ptr %166, i32 0, i32 1
  %168 = load i64, ptr %167, align 8, !tbaa !54
  %169 = load ptr, ptr %6, align 8, !tbaa !8
  %170 = getelementptr inbounds nuw %struct.H5D_t, ptr %169, i32 0, i32 2
  %171 = load ptr, ptr %170, align 8, !tbaa !16
  %172 = getelementptr inbounds nuw %struct.H5D_shared_t, ptr %171, i32 0, i32 14
  %173 = getelementptr inbounds nuw %struct.anon.7, ptr %172, i32 0, i32 0
  %174 = getelementptr inbounds nuw %struct.H5D_rdcdc_t, ptr %173, i32 0, i32 3
  store i64 %168, ptr %174, align 8, !tbaa !55
  br label %183

175:                                              ; preds = %144
  %176 = load i64, ptr %8, align 8, !tbaa !49
  %177 = load ptr, ptr %6, align 8, !tbaa !8
  %178 = getelementptr inbounds nuw %struct.H5D_t, ptr %177, i32 0, i32 2
  %179 = load ptr, ptr %178, align 8, !tbaa !16
  %180 = getelementptr inbounds nuw %struct.H5D_shared_t, ptr %179, i32 0, i32 14
  %181 = getelementptr inbounds nuw %struct.anon.7, ptr %180, i32 0, i32 0
  %182 = getelementptr inbounds nuw %struct.H5D_rdcdc_t, ptr %181, i32 0, i32 3
  store i64 %176, ptr %182, align 8, !tbaa !55
  br label %183

183:                                              ; preds = %175, %160
  br label %184

184:                                              ; preds = %183, %141, %62
  br label %185

185:                                              ; preds = %184, %21
  %186 = load i32, ptr %9, align 4, !tbaa !10
  store i32 %186, ptr %4, align 4
  store i32 1, ptr %14, align 4
  br label %187

187:                                              ; preds = %185, %141
  call void @llvm.lifetime.end.p0(i64 1, ptr %10) #6
  call void @llvm.lifetime.end.p0(i64 4, ptr %9) #6
  call void @llvm.lifetime.end.p0(i64 8, ptr %8) #6
  %188 = load i32, ptr %4, align 4
  ret i32 %188
}