; Function Attrs: nounwind uwtable
define internal range(i32 -1, 1) i32 @H5D__contig_init(ptr noundef %0, ptr noundef readonly captures(none) %1, i64 %2) #0 {
  %4 = load i8, ptr @H5D_init_g, align 1, !tbaa !3, !range !7, !noundef !8
  %5 = trunc nuw i8 %4 to i1
  %6 = load i8, ptr @H5_libterm_g, align 1, !range !7
  %7 = trunc nuw i8 %6 to i1
  %8 = xor i1 %7, true
  %9 = select i1 %5, i1 true, i1 %8
  br i1 %9, label %10, label %.thread, !prof !9

10:                                               ; preds = %3
  %11 = getelementptr inbounds nuw i8, ptr %1, i64 48
  %12 = load ptr, ptr %11, align 8, !tbaa !10
  %13 = getelementptr inbounds nuw i8, ptr %12, i64 248
  %14 = getelementptr inbounds nuw i8, ptr %12, i64 32
  %15 = load ptr, ptr %14, align 8, !tbaa !49
  %16 = tail call ptr @H5S_get_simple_extent(ptr noundef %15) #9
  %17 = load ptr, ptr %11, align 8, !tbaa !10
  %18 = getelementptr inbounds nuw i8, ptr %17, i64 24
  %19 = load ptr, ptr %18, align 8, !tbaa !50
  %20 = tail call i32 @H5D__contig_check(ptr noundef %0, ptr noundef nonnull %13, ptr noundef %16, ptr noundef %19)
  %21 = icmp slt i32 %20, 0
  br i1 %21, label %22, label %26

22:                                               ; preds = %10
  %23 = load i64, ptr @H5E_DATASET_g, align 8, !tbaa !48
  %24 = load i64, ptr @H5E_BADVALUE_g, align 8, !tbaa !48
  %25 = tail call i32 (ptr, ptr, i32, i64, i64, ptr, ...) @H5E_printf_stack(ptr noundef nonnull @.str.1, ptr noundef nonnull @__func__.H5D__contig_init, i32 noundef 514, i64 noundef %23, i64 noundef %24, ptr noundef nonnull @.str.37) #9
  br label %.thread

26:                                               ; preds = %10
  %27 = load ptr, ptr %11, align 8, !tbaa !10
  %28 = getelementptr inbounds nuw i8, ptr %27, i64 252
  %29 = load i32, ptr %28, align 4, !tbaa !53
  %30 = icmp ult i32 %29, 3
  br i1 %30, label %31, label %54

31:                                               ; preds = %26
  %32 = getelementptr inbounds nuw i8, ptr %27, i64 32
  %33 = load ptr, ptr %32, align 8, !tbaa !49
  %34 = tail call i64 @H5S_get_simple_extent_npoints(ptr noundef %33) #9
  %35 = icmp slt i64 %34, 0
  br i1 %35, label %36, label %40

36:                                               ; preds = %31
  %37 = load i64, ptr @H5E_DATASET_g, align 8, !tbaa !48
  %38 = load i64, ptr @H5E_CANTGET_g, align 8, !tbaa !48
  %39 = tail call i32 (ptr, ptr, i32, i64, i64, ptr, ...) @H5E_printf_stack(ptr noundef nonnull @.str.1, ptr noundef nonnull @__func__.H5D__contig_init, i32 noundef 527, i64 noundef %37, i64 noundef %38, ptr noundef nonnull @.str.36) #9
  br label %.thread

40:                                               ; preds = %31
  %41 = load ptr, ptr %11, align 8, !tbaa !10
  %42 = getelementptr inbounds nuw i8, ptr %41, i64 24
  %43 = load ptr, ptr %42, align 8, !tbaa !50
  %44 = tail call i64 @H5T_get_size(ptr noundef %43) #9
  %45 = icmp eq i64 %44, 0
  br i1 %45, label %46, label %50

46:                                               ; preds = %40
  %47 = load i64, ptr @H5E_DATASET_g, align 8, !tbaa !48
  %48 = load i64, ptr @H5E_CANTGET_g, align 8, !tbaa !48
  %49 = tail call i32 (ptr, ptr, i32, i64, i64, ptr, ...) @H5E_printf_stack(ptr noundef nonnull @.str.1, ptr noundef nonnull @__func__.H5D__contig_init, i32 noundef 532, i64 noundef %47, i64 noundef %48, ptr noundef nonnull @.str.10) #9
  br label %.thread

50:                                               ; preds = %40
  %51 = mul i64 %44, %34
  %52 = load ptr, ptr %11, align 8, !tbaa !10
  %53 = getelementptr inbounds nuw i8, ptr %52, i64 2176
  store i64 %51, ptr %53, align 8, !tbaa !51
  br label %54

54:                                               ; preds = %50, %26
  %55 = load ptr, ptr %1, align 8, !tbaa !54
  %56 = tail call i64 @H5F_sieve_buf_size(ptr noundef %55) #9
  %57 = load ptr, ptr %11, align 8, !tbaa !10
  %58 = getelementptr inbounds nuw i8, ptr %57, i64 2176
  %59 = load i64, ptr %58, align 8, !tbaa !51
  %60 = icmp ult i64 %59, %56
  %61 = getelementptr inbounds nuw i8, ptr %57, i64 3304
  br i1 %60, label %62, label %63

62:                                               ; preds = %54
  store i64 %59, ptr %61, align 8, !tbaa !52
  br label %.thread

63:                                               ; preds = %54
  store i64 %56, ptr %61, align 8, !tbaa !52
  br label %.thread

.thread:                                          ; preds = %46, %36, %3, %62, %63, %22
  %.023 = phi i32 [ -1, %22 ], [ 0, %62 ], [ 0, %63 ], [ 0, %3 ], [ -1, %36 ], [ -1, %46 ]
  ret i32 %.023
}